; Function Attrs: nounwind sspstrong uwtable
define internal void @vga_pci_class_init(ptr noundef %klass, ptr readnone captures(none) %data) #0 {
entry:
  %call.i = tail call ptr @object_class_dynamic_cast_assert(ptr noundef %klass, ptr noundef nonnull @.str.7, ptr noundef nonnull @.str.8, i32 noundef 77, ptr noundef nonnull @__func__.DEVICE_CLASS) #4
  %call.i5 = tail call ptr @object_class_dynamic_cast_assert(ptr noundef %klass, ptr noundef nonnull @.str.4, ptr noundef nonnull @.str.9, i32 noundef 10, ptr noundef nonnull @__func__.PCI_DEVICE_CLASS) #4
  %call.i6 = tail call ptr @object_class_dynamic_cast_assert(ptr noundef %klass, ptr noundef nonnull @.str.6, ptr noundef nonnull @.str.10, i32 noundef 10, ptr noundef nonnull @__func__.ACPI_DEV_AML_IF_CLASS) #4
  %vendor_id = getelementptr inbounds nuw i8, ptr %call.i5, i64 208
  store i16 4660, ptr %vendor_id, align 8
  %device_id = getelementptr inbounds nuw i8, ptr %call.i5, i64 210
  store i16 4369, ptr %device_id, align 2
  %vmsd = getelementptr inbounds nuw i8, ptr %call.i, i64 160
  store ptr @vmstate_vga_pci, ptr %vmsd, align 8
  %categories = getelementptr inbounds nuw i8, ptr %call.i, i64 96
  %0 = load i64, ptr %categories, align 8
  %or.i = or i64 %0, 32
  store i64 %or.i, ptr %categories, align 8
  %build_dev_aml = getelementptr inbounds nuw i8, ptr %call.i6, i64 112
  store ptr @build_vga_aml, ptr %build_dev_aml, align 8
  ret void
}